target datalayout = "e-m:e-p270:32:32-p271:32:32-p272:64:64-i64:64-i128:128-f80:128-n8:16:32:64-S128"
target triple = "x86_64-pc-linux-gnu"

; Function Attrs: inlinehint nounwind uwtable
define internal ptr @ossl_check_X509_EXTENSION_freefunc_type(ptr noundef %0) #5 {
  %2 = alloca ptr, align 8
  store ptr %0, ptr %2, align 8, !tbaa !30
  %3 = load ptr, ptr %2, align 8, !tbaa !30
  ret ptr %3
}

; Function Attrs: inlinehint nounwind uwtable
define internal ptr @ossl_check_X509_EXTENSION_sk_type(ptr noundef %0) #5 {
  %2 = alloca ptr, align 8
  store ptr %0, ptr %2, align 8, !tbaa !101
  %3 = load ptr, ptr %2, align 8, !tbaa !101
  ret ptr %3
}

; Function Attrs: inlinehint nounwind uwtable
define internal ptr @ossl_check_const_X509_EXTENSION_sk_type(ptr noundef %0) #5 {
  %2 = alloca ptr, align 8
  store ptr %0, ptr %2, align 8, !tbaa !101
  %3 = load ptr, ptr %2, align 8, !tbaa !101
  ret ptr %3
}

; Function Attrs: nounwind uwtable
define dso_local i32 @copy_extensions(ptr noundef %0, ptr noundef %1, i32 noundef %2) #0 {
  %4 = alloca i32, align 4
  %5 = alloca ptr, align 8
  %6 = alloca ptr, align 8
  %7 = alloca i32, align 4
  %8 = alloca ptr, align 8
  %9 = alloca i32, align 4
  %10 = alloca i32, align 4
  %11 = alloca i32, align 4
  %12 = alloca ptr, align 8
  %13 = alloca ptr, align 8
  %14 = alloca i32, align 4
  store ptr %0, ptr %5, align 8, !tbaa !37
  store ptr %1, ptr %6, align 8, !tbaa !82
  store i32 %2, ptr %7, align 4, !tbaa !25
  call void @llvm.lifetime.start.p0(i64 8, ptr %8) #12
  call void @llvm.lifetime.start.p0(i64 4, ptr %9) #12
  call void @llvm.lifetime.start.p0(i64 4, ptr %10) #12
  store i32 0, ptr %10, align 4, !tbaa !25
  %15 = load ptr, ptr %5, align 8, !tbaa !37
  %16 = icmp eq ptr %15, null
  br i1 %16, label %20, label %17

17:                                               ; preds = %3
  %18 = load ptr, ptr %6, align 8, !tbaa !82
  %19 = icmp eq ptr %18, null
  br i1 %19, label %20, label %21

20:                                               ; preds = %17, %3
  store i32 0, ptr %4, align 4
  store i32 1, ptr %11, align 4
  br label %81

21:                                               ; preds = %17
  %22 = load i32, ptr %7, align 4, !tbaa !25
  %23 = icmp eq i32 %22, 0
  br i1 %23, label %24, label %25

24:                                               ; preds = %21
  store i32 1, ptr %4, align 4
  store i32 1, ptr %11, align 4
  br label %81

25:                                               ; preds = %21
  %26 = load ptr, ptr %6, align 8, !tbaa !82
  %27 = call ptr @X509_REQ_get_extensions(ptr noundef %26)
  store ptr %27, ptr %8, align 8, !tbaa !101
  store i32 0, ptr %9, align 4, !tbaa !25
  br label %28

28:                                               ; preds = %72, %25
  %29 = load i32, ptr %9, align 4, !tbaa !25
  %30 = load ptr, ptr %8, align 8, !tbaa !101
  %31 = call ptr @ossl_check_const_X509_EXTENSION_sk_type(ptr noundef %30)
  %32 = call i32 @OPENSSL_sk_num(ptr noundef %31)
  %33 = icmp slt i32 %29, %32
  br i1 %33, label %34, label %75

34:                                               ; preds = %28
  call void @llvm.lifetime.start.p0(i64 8, ptr %12) #12
  %35 = load ptr, ptr %8, align 8, !tbaa !101
  %36 = call ptr @ossl_check_const_X509_EXTENSION_sk_type(ptr noundef %35)
  %37 = load i32, ptr %9, align 4, !tbaa !25
  %38 = call ptr @OPENSSL_sk_value(ptr noundef %36, i32 noundef %37)
  store ptr %38, ptr %12, align 8, !tbaa !103
  call void @llvm.lifetime.start.p0(i64 8, ptr %13) #12
  %39 = load ptr, ptr %12, align 8, !tbaa !103
  %40 = call ptr @X509_EXTENSION_get_object(ptr noundef %39)
  store ptr %40, ptr %13, align 8, !tbaa !105
  call void @llvm.lifetime.start.p0(i64 4, ptr %14) #12
  %41 = load ptr, ptr %5, align 8, !tbaa !37
  %42 = load ptr, ptr %13, align 8, !tbaa !105
  %43 = call i32 @X509_get_ext_by_OBJ(ptr noundef %41, ptr noundef %42, i32 noundef -1)
  store i32 %43, ptr %14, align 4, !tbaa !25
  %44 = load i32, ptr %14, align 4, !tbaa !25
  %45 = icmp ne i32 %44, -1
  br i1 %45, label %46, label %62

46:                                               ; preds = %34
  %47 = load i32, ptr %7, align 4, !tbaa !25
  %48 = icmp eq i32 %47, 1
  br i1 %48, label %49, label %50

49:                                               ; preds = %46
  store i32 4, ptr %11, align 4
  br label %69

50:                                               ; preds = %46
  br label %51

51:                                               ; preds = %58, %50
  %52 = load ptr, ptr %5, align 8, !tbaa !37
  %53 = load i32, ptr %14, align 4, !tbaa !25
  %54 = call ptr @X509_delete_ext(ptr noundef %52, i32 noundef %53)
  call void @X509_EXTENSION_free(ptr noundef %54)
  %55 = load ptr, ptr %5, align 8, !tbaa !37
  %56 = load ptr, ptr %13, align 8, !tbaa !105
  %57 = call i32 @X509_get_ext_by_OBJ(ptr noundef %55, ptr noundef %56, i32 noundef -1)
  store i32 %57, ptr %14, align 4, !tbaa !25
  br label %58

58:                                               ; preds = %51
  %59 = load i32, ptr %14, align 4, !tbaa !25
  %60 = icmp ne i32 %59, -1
  br i1 %60, label %51, label %61, !llvm.loop !107

61:                                               ; preds = %58
  br label %62

62:                                               ; preds = %61, %34
  %63 = load ptr, ptr %5, align 8, !tbaa !37
  %64 = load ptr, ptr %12, align 8, !tbaa !103
  %65 = call i32 @X509_add_ext(ptr noundef %63, ptr noundef %64, i32 noundef -1)
  %66 = icmp ne i32 %65, 0
  br i1 %66, label %68, label %67

67:                                               ; preds = %62
  store i32 7, ptr %11, align 4
  br label %69

68:                                               ; preds = %62
  store i32 0, ptr %11, align 4
  br label %69

69:                                               ; preds = %67, %68, %49
  call void @llvm.lifetime.end.p0(i64 4, ptr %14) #12
  call void @llvm.lifetime.end.p0(i64 8, ptr %13) #12
  call void @llvm.lifetime.end.p0(i64 8, ptr %12) #12
  %70 = load i32, ptr %11, align 4
  switch i32 %70, label %81 [
    i32 0, label %71
    i32 4, label %72
    i32 7, label %76
  ]

71:                                               ; preds = %69
  br label %72

72:                                               ; preds = %71, %69
  %73 = load i32, ptr %9, align 4, !tbaa !25
  %74 = add nsw i32 %73, 1
  store i32 %74, ptr %9, align 4, !tbaa !25
  br label %28, !llvm.loop !108

75:                                               ; preds = %28
  store i32 1, ptr %10, align 4, !tbaa !25
  br label %76

76:                                               ; preds = %75, %69
  %77 = load ptr, ptr %8, align 8, !tbaa !101
  %78 = call ptr @ossl_check_X509_EXTENSION_sk_type(ptr noundef %77)
  %79 = call ptr @ossl_check_X509_EXTENSION_freefunc_type(ptr noundef @X509_EXTENSION_free)
  call void @OPENSSL_sk_pop_free(ptr noundef %78, ptr noundef %79)
  %80 = load i32, ptr %10, align 4, !tbaa !25
  store i32 %80, ptr %4, align 4
  store i32 1, ptr %11, align 4
  br label %81

81:                                               ; preds = %76, %69, %24, %20
  call void @llvm.lifetime.end.p0(i64 4, ptr %10) #12
  call void @llvm.lifetime.end.p0(i64 4, ptr %9) #12
  call void @llvm.lifetime.end.p0(i64 8, ptr %8) #12
  %82 = load i32, ptr %4, align 4
  ret i32 %82
}