; Function Attrs: nounwind uwtable
define dso_local range(i32 0, 2) i32 @copy_extensions(ptr noundef %0, ptr noundef %1, i32 noundef %2) local_unnamed_addr #0 {
  %4 = icmp eq ptr %0, null
  %5 = icmp eq ptr %1, null
  %or.cond = or i1 %4, %5
  br i1 %or.cond, label %32, label %6

6:                                                ; preds = %3
  %7 = icmp eq i32 %2, 0
  br i1 %7, label %32, label %8

8:                                                ; preds = %6
  %9 = tail call ptr @X509_REQ_get_extensions(ptr noundef nonnull %1) #27
  %10 = tail call i32 @OPENSSL_sk_num(ptr noundef %9) #27
  %11 = icmp sgt i32 %10, 0
  br i1 %11, label %.lr.ph, label %._crit_edge

.lr.ph:                                           ; preds = %8
  %12 = icmp eq i32 %2, 1
  br i1 %12, label %.lr.ph.split.us, label %.lr.ph.split

.lr.ph.split.us:                                  ; preds = %.lr.ph, %18
  %.02636.us = phi i32 [ %19, %18 ], [ 0, %.lr.ph ]
  %13 = tail call ptr @OPENSSL_sk_value(ptr noundef %9, i32 noundef %.02636.us) #27
  %14 = tail call ptr @X509_EXTENSION_get_object(ptr noundef %13) #27
  %15 = tail call i32 @X509_get_ext_by_OBJ(ptr noundef %0, ptr noundef %14, i32 noundef -1) #27
  %.not.us = icmp eq i32 %15, -1
  br i1 %.not.us, label %16, label %18

16:                                               ; preds = %.lr.ph.split.us
  %17 = tail call i32 @X509_add_ext(ptr noundef %0, ptr noundef %13, i32 noundef -1) #27
  %.not34.us = icmp eq i32 %17, 0
  br i1 %.not34.us, label %._crit_edge, label %18

18:                                               ; preds = %.lr.ph.split.us, %16
  %19 = add nuw nsw i32 %.02636.us, 1
  %20 = tail call i32 @OPENSSL_sk_num(ptr noundef %9) #27
  %21 = icmp slt i32 %19, %20
  br i1 %21, label %.lr.ph.split.us, label %._crit_edge, !llvm.loop !63

.lr.ph.split:                                     ; preds = %.lr.ph, %28
  %.02636 = phi i32 [ %29, %28 ], [ 0, %.lr.ph ]
  %22 = tail call ptr @OPENSSL_sk_value(ptr noundef %9, i32 noundef %.02636) #27
  %23 = tail call ptr @X509_EXTENSION_get_object(ptr noundef %22) #27
  %24 = tail call i32 @X509_get_ext_by_OBJ(ptr noundef %0, ptr noundef %23, i32 noundef -1) #27
  %.not = icmp eq i32 %24, -1
  br i1 %.not, label %.loopexit, label %.preheader

.preheader:                                       ; preds = %.lr.ph.split, %.preheader
  %.0 = phi i32 [ %26, %.preheader ], [ %24, %.lr.ph.split ]
  %25 = tail call ptr @X509_delete_ext(ptr noundef %0, i32 noundef %.0) #27
  tail call void @X509_EXTENSION_free(ptr noundef %25) #27
  %26 = tail call i32 @X509_get_ext_by_OBJ(ptr noundef %0, ptr noundef %23, i32 noundef -1) #27
  %.not33 = icmp eq i32 %26, -1
  br i1 %.not33, label %.loopexit, label %.preheader, !llvm.loop !64

.loopexit:                                        ; preds = %.preheader, %.lr.ph.split
  %27 = tail call i32 @X509_add_ext(ptr noundef %0, ptr noundef %22, i32 noundef -1) #27
  %.not34 = icmp eq i32 %27, 0
  br i1 %.not34, label %._crit_edge, label %28

28:                                               ; preds = %.loopexit
  %29 = add nuw nsw i32 %.02636, 1
  %30 = tail call i32 @OPENSSL_sk_num(ptr noundef %9) #27
  %31 = icmp slt i32 %29, %30
  br i1 %31, label %.lr.ph.split, label %._crit_edge, !llvm.loop !63

._crit_edge:                                      ; preds = %28, %.loopexit, %18, %16, %8
  %.028 = phi i32 [ 1, %8 ], [ 0, %16 ], [ 1, %18 ], [ 0, %.loopexit ], [ 1, %28 ]
  tail call void @OPENSSL_sk_pop_free(ptr noundef %9, ptr noundef nonnull @X509_EXTENSION_free) #27
  br label %32

32:                                               ; preds = %6, %3, %._crit_edge
  %.025 = phi i32 [ %.028, %._crit_edge ], [ 0, %3 ], [ 1, %6 ]
  ret i32 %.025
}